target datalayout = "e-m:e-p270:32:32-p271:32:32-p272:64:64-i64:64-i128:128-f80:128-n8:16:32:64-S128"
target triple = "x86_64-pc-linux-gnu"

%struct.DdTlcInfo = type { ptr, ptr, i32 }

; Function Attrs: nounwind uwtable
define internal ptr @emptyClauseSet() #0 {
  %1 = alloca ptr, align 8
  %2 = alloca ptr, align 8
  %3 = call noalias ptr @malloc(i64 noundef 24) #5
  store ptr %3, ptr %2, align 8
  %4 = load ptr, ptr %2, align 8
  %5 = icmp eq ptr %4, null
  br i1 %5, label %6, label %7

6:                                                ; preds = %0
  store ptr null, ptr %1, align 8
  br label %36

7:                                                ; preds = %0
  %8 = call noalias ptr @malloc(i64 noundef 8) #5
  %9 = load ptr, ptr %2, align 8
  %10 = getelementptr inbounds %struct.DdTlcInfo, ptr %9, i32 0, i32 0
  store ptr %8, ptr %10, align 8
  %11 = load ptr, ptr %2, align 8
  %12 = getelementptr inbounds %struct.DdTlcInfo, ptr %11, i32 0, i32 0
  %13 = load ptr, ptr %12, align 8
  %14 = icmp eq ptr %13, null
  br i1 %14, label %15, label %22

15:                                               ; preds = %7
  %16 = load ptr, ptr %2, align 8
  %17 = icmp ne ptr %16, null
  br i1 %17, label %18, label %20

18:                                               ; preds = %15
  %19 = load ptr, ptr %2, align 8
  call void @free(ptr noundef %19) #6
  store ptr null, ptr %2, align 8
  br label %21

20:                                               ; preds = %15
  br label %21

21:                                               ; preds = %20, %18
  store ptr null, ptr %1, align 8
  br label %36

22:                                               ; preds = %7
  %23 = load ptr, ptr %2, align 8
  %24 = getelementptr inbounds %struct.DdTlcInfo, ptr %23, i32 0, i32 0
  %25 = load ptr, ptr %24, align 8
  %26 = getelementptr inbounds i32, ptr %25, i64 0
  store i32 0, ptr %26, align 4
  %27 = load ptr, ptr %2, align 8
  %28 = getelementptr inbounds %struct.DdTlcInfo, ptr %27, i32 0, i32 0
  %29 = load ptr, ptr %28, align 8
  %30 = getelementptr inbounds i32, ptr %29, i64 1
  store i32 0, ptr %30, align 4
  %31 = load ptr, ptr %2, align 8
  %32 = getelementptr inbounds %struct.DdTlcInfo, ptr %31, i32 0, i32 1
  store ptr null, ptr %32, align 8
  %33 = load ptr, ptr %2, align 8
  %34 = getelementptr inbounds %struct.DdTlcInfo, ptr %33, i32 0, i32 2
  store i32 0, ptr %34, align 8
  %35 = load ptr, ptr %2, align 8
  store ptr %35, ptr %1, align 8
  br label %36

36:                                               ; preds = %22, %21, %6
  %37 = load ptr, ptr %1, align 8
  ret ptr %37
}