; Function Attrs: mustprogress nounwind willreturn memory(readwrite, argmem: none) uwtable
define internal fastcc noalias noundef ptr @emptyClauseSet() unnamed_addr #2 {
  %1 = tail call noalias dereferenceable_or_null(24) ptr @malloc(i64 noundef 24) #12
  %2 = icmp eq ptr %1, null
  br i1 %2, label %11, label %3

3:                                                ; preds = %0
  %4 = tail call noalias dereferenceable_or_null(8) ptr @malloc(i64 noundef 8) #12
  store ptr %4, ptr %1, align 8
  %5 = icmp eq ptr %4, null
  br i1 %5, label %6, label %7

6:                                                ; preds = %3
  tail call void @free(ptr noundef nonnull %1) #11
  br label %11

7:                                                ; preds = %3
  store i32 0, ptr %4, align 4
  %8 = getelementptr inbounds nuw i8, ptr %4, i64 4
  store i32 0, ptr %8, align 4
  %9 = getelementptr inbounds nuw i8, ptr %1, i64 8
  store ptr null, ptr %9, align 8
  %10 = getelementptr inbounds nuw i8, ptr %1, i64 16
  store i32 0, ptr %10, align 8
  br label %11

11:                                               ; preds = %0, %7, %6
  %.0 = phi ptr [ null, %6 ], [ %1, %7 ], [ null, %0 ]
  ret ptr %.0
}